target datalayout = "e-m:e-p270:32:32-p271:32:32-p272:64:64-i64:64-i128:128-f80:128-n8:16:32:64-S128"
target triple = "x86_64-pc-linux-gnu"

%struct.MvcCubeStruct = type { ptr, i32, i32, [1 x i32] }
%struct.MvcCoverStruct = type { i32, i32, i32, %struct.MvcListStruct, ptr, i32, ptr, ptr, ptr }
%struct.MvcListStruct = type { ptr, ptr, i32 }

; Function Attrs: nounwind uwtable
define ptr @Mvc_CoverUnivQuantify(ptr noundef %0, i32 noundef %1, i32 noundef %2, i32 noundef %3, i32 noundef %4) #0 {
  %6 = alloca ptr, align 8
  %7 = alloca i32, align 4
  %8 = alloca i32, align 4
  %9 = alloca i32, align 4
  %10 = alloca i32, align 4
  %11 = alloca ptr, align 8
  %12 = alloca ptr, align 8
  %13 = alloca ptr, align 8
  %14 = alloca i32, align 4
  %15 = alloca i32, align 4
  %16 = alloca i32, align 4
  %17 = alloca i32, align 4
  %18 = alloca ptr, align 8
  store ptr %0, ptr %6, align 8, !tbaa !3
  store i32 %1, ptr %7, align 4, !tbaa !10
  store i32 %2, ptr %8, align 4, !tbaa !10
  store i32 %3, ptr %9, align 4, !tbaa !10
  store i32 %4, ptr %10, align 4, !tbaa !10
  call void @llvm.lifetime.start.p0(i64 8, ptr %11) #3
  call void @llvm.lifetime.start.p0(i64 8, ptr %12) #3
  call void @llvm.lifetime.start.p0(i64 8, ptr %13) #3
  call void @llvm.lifetime.start.p0(i64 4, ptr %14) #3
  call void @llvm.lifetime.start.p0(i64 4, ptr %15) #3
  call void @llvm.lifetime.start.p0(i64 4, ptr %16) #3
  call void @llvm.lifetime.start.p0(i64 4, ptr %17) #3
  %19 = load ptr, ptr %6, align 8, !tbaa !3
  %20 = call ptr @Mvc_CoverClone(ptr noundef %19)
  store ptr %20, ptr %11, align 8, !tbaa !3
  %21 = load ptr, ptr %6, align 8, !tbaa !3
  %22 = getelementptr inbounds nuw %struct.MvcCoverStruct, ptr %21, i32 0, i32 3
  %23 = getelementptr inbounds nuw %struct.MvcListStruct, ptr %22, i32 0, i32 0
  %24 = load ptr, ptr %23, align 8, !tbaa !14
  store ptr %24, ptr %12, align 8, !tbaa !8
  br label %25

25:                                               ; preds = %203, %5
  %26 = load ptr, ptr %12, align 8, !tbaa !8
  %27 = icmp ne ptr %26, null
  br i1 %27, label %28, label %207

28:                                               ; preds = %25
  %29 = load ptr, ptr %12, align 8, !tbaa !8
  %30 = getelementptr inbounds nuw %struct.MvcCubeStruct, ptr %29, i32 0, i32 3
  %31 = load i32, ptr %7, align 4, !tbaa !10
  %32 = ashr i32 %31, 5
  %33 = sext i32 %32 to i64
  %34 = getelementptr inbounds [1 x i32], ptr %30, i64 0, i64 %33
  %35 = load i32, ptr %34, align 4, !tbaa !10
  %36 = load i32, ptr %7, align 4, !tbaa !10
  %37 = and i32 %36, 31
  %38 = shl i32 1, %37
  %39 = and i32 %35, %38
  %40 = icmp ugt i32 %39, 0
  %41 = zext i1 %40 to i32
  store i32 %41, ptr %14, align 4, !tbaa !10
  %42 = load ptr, ptr %12, align 8, !tbaa !8
  %43 = getelementptr inbounds nuw %struct.MvcCubeStruct, ptr %42, i32 0, i32 3
  %44 = load i32, ptr %8, align 4, !tbaa !10
  %45 = ashr i32 %44, 5
  %46 = sext i32 %45 to i64
  %47 = getelementptr inbounds [1 x i32], ptr %43, i64 0, i64 %46
  %48 = load i32, ptr %47, align 4, !tbaa !10
  %49 = load i32, ptr %8, align 4, !tbaa !10
  %50 = and i32 %49, 31
  %51 = shl i32 1, %50
  %52 = and i32 %48, %51
  %53 = icmp ugt i32 %52, 0
  %54 = zext i1 %53 to i32
  store i32 %54, ptr %15, align 4, !tbaa !10
  %55 = load ptr, ptr %12, align 8, !tbaa !8
  %56 = getelementptr inbounds nuw %struct.MvcCubeStruct, ptr %55, i32 0, i32 3
  %57 = load i32, ptr %9, align 4, !tbaa !10
  %58 = ashr i32 %57, 5
  %59 = sext i32 %58 to i64
  %60 = getelementptr inbounds [1 x i32], ptr %56, i64 0, i64 %59
  %61 = load i32, ptr %60, align 4, !tbaa !10
  %62 = load i32, ptr %9, align 4, !tbaa !10
  %63 = and i32 %62, 31
  %64 = shl i32 1, %63
  %65 = and i32 %61, %64
  %66 = icmp ugt i32 %65, 0
  %67 = zext i1 %66 to i32
  store i32 %67, ptr %16, align 4, !tbaa !10
  %68 = load ptr, ptr %12, align 8, !tbaa !8
  %69 = getelementptr inbounds nuw %struct.MvcCubeStruct, ptr %68, i32 0, i32 3
  %70 = load i32, ptr %10, align 4, !tbaa !10
  %71 = ashr i32 %70, 5
  %72 = sext i32 %71 to i64
  %73 = getelementptr inbounds [1 x i32], ptr %69, i64 0, i64 %72
  %74 = load i32, ptr %73, align 4, !tbaa !10
  %75 = load i32, ptr %10, align 4, !tbaa !10
  %76 = and i32 %75, 31
  %77 = shl i32 1, %76
  %78 = and i32 %74, %77
  %79 = icmp ugt i32 %78, 0
  %80 = zext i1 %79 to i32
  store i32 %80, ptr %17, align 4, !tbaa !10
  %81 = load i32, ptr %14, align 4, !tbaa !10
  %82 = load i32, ptr %16, align 4, !tbaa !10
  %83 = icmp ne i32 %81, %82
  br i1 %83, label %84, label %89

84:                                               ; preds = %28
  %85 = load i32, ptr %15, align 4, !tbaa !10
  %86 = load i32, ptr %17, align 4, !tbaa !10
  %87 = icmp ne i32 %85, %86
  br i1 %87, label %88, label %89

88:                                               ; preds = %84
  br label %203

89:                                               ; preds = %84, %28
  %90 = load ptr, ptr %11, align 8, !tbaa !3
  %91 = load ptr, ptr %12, align 8, !tbaa !8
  %92 = call ptr @Mvc_CubeDup(ptr noundef %90, ptr noundef %91)
  store ptr %92, ptr %13, align 8, !tbaa !8
  call void @llvm.lifetime.start.p0(i64 8, ptr %18) #3
  %93 = load ptr, ptr %11, align 8, !tbaa !3
  %94 = getelementptr inbounds nuw %struct.MvcCoverStruct, ptr %93, i32 0, i32 3
  store ptr %94, ptr %18, align 8, !tbaa !36
  %95 = load ptr, ptr %18, align 8, !tbaa !36
  %96 = getelementptr inbounds nuw %struct.MvcListStruct, ptr %95, i32 0, i32 0
  %97 = load ptr, ptr %96, align 8, !tbaa !38
  %98 = icmp eq ptr %97, null
  br i1 %98, label %99, label %103

99:                                               ; preds = %89
  %100 = load ptr, ptr %13, align 8, !tbaa !8
  %101 = load ptr, ptr %18, align 8, !tbaa !36
  %102 = getelementptr inbounds nuw %struct.MvcListStruct, ptr %101, i32 0, i32 0
  store ptr %100, ptr %102, align 8, !tbaa !38
  br label %109

103:                                              ; preds = %89
  %104 = load ptr, ptr %13, align 8, !tbaa !8
  %105 = load ptr, ptr %18, align 8, !tbaa !36
  %106 = getelementptr inbounds nuw %struct.MvcListStruct, ptr %105, i32 0, i32 1
  %107 = load ptr, ptr %106, align 8, !tbaa !39
  %108 = getelementptr inbounds nuw %struct.MvcCubeStruct, ptr %107, i32 0, i32 0
  store ptr %104, ptr %108, align 8, !tbaa !21
  br label %109

109:                                              ; preds = %103, %99
  %110 = load ptr, ptr %13, align 8, !tbaa !8
  %111 = load ptr, ptr %18, align 8, !tbaa !36
  %112 = getelementptr inbounds nuw %struct.MvcListStruct, ptr %111, i32 0, i32 1
  store ptr %110, ptr %112, align 8, !tbaa !39
  %113 = load ptr, ptr %13, align 8, !tbaa !8
  %114 = getelementptr inbounds nuw %struct.MvcCubeStruct, ptr %113, i32 0, i32 0
  store ptr null, ptr %114, align 8, !tbaa !21
  %115 = load ptr, ptr %18, align 8, !tbaa !36
  %116 = getelementptr inbounds nuw %struct.MvcListStruct, ptr %115, i32 0, i32 2
  %117 = load i32, ptr %116, align 8, !tbaa !40
  %118 = add nsw i32 %117, 1
  store i32 %118, ptr %116, align 8, !tbaa !40
  call void @llvm.lifetime.end.p0(i64 8, ptr %18) #3
  %119 = load i32, ptr %14, align 4, !tbaa !10
  %120 = icmp ne i32 %119, 0
  br i1 %120, label %121, label %136

121:                                              ; preds = %109
  %122 = load i32, ptr %16, align 4, !tbaa !10
  %123 = icmp ne i32 %122, 0
  br i1 %123, label %124, label %136

124:                                              ; preds = %121
  %125 = load i32, ptr %7, align 4, !tbaa !10
  %126 = and i32 %125, 31
  %127 = shl i32 1, %126
  %128 = load ptr, ptr %13, align 8, !tbaa !8
  %129 = getelementptr inbounds nuw %struct.MvcCubeStruct, ptr %128, i32 0, i32 3
  %130 = load i32, ptr %7, align 4, !tbaa !10
  %131 = ashr i32 %130, 5
  %132 = sext i32 %131 to i64
  %133 = getelementptr inbounds [1 x i32], ptr %129, i64 0, i64 %132
  %134 = load i32, ptr %133, align 4, !tbaa !10
  %135 = or i32 %134, %127
  store i32 %135, ptr %133, align 4, !tbaa !10
  br label %149

136:                                              ; preds = %121, %109
  %137 = load i32, ptr %7, align 4, !tbaa !10
  %138 = and i32 %137, 31
  %139 = shl i32 1, %138
  %140 = xor i32 %139, -1
  %141 = load ptr, ptr %13, align 8, !tbaa !8
  %142 = getelementptr inbounds nuw %struct.MvcCubeStruct, ptr %141, i32 0, i32 3
  %143 = load i32, ptr %7, align 4, !tbaa !10
  %144 = ashr i32 %143, 5
  %145 = sext i32 %144 to i64
  %146 = getelementptr inbounds [1 x i32], ptr %142, i64 0, i64 %145
  %147 = load i32, ptr %146, align 4, !tbaa !10
  %148 = and i32 %147, %140
  store i32 %148, ptr %146, align 4, !tbaa !10
  br label %149

149:                                              ; preds = %136, %124
  %150 = load i32, ptr %15, align 4, !tbaa !10
  %151 = icmp ne i32 %150, 0
  br i1 %151, label %152, label %167

152:                                              ; preds = %149
  %153 = load i32, ptr %17, align 4, !tbaa !10
  %154 = icmp ne i32 %153, 0
  br i1 %154, label %155, label %167

155:                                              ; preds = %152
  %156 = load i32, ptr %8, align 4, !tbaa !10
  %157 = and i32 %156, 31
  %158 = shl i32 1, %157
  %159 = load ptr, ptr %13, align 8, !tbaa !8
  %160 = getelementptr inbounds nuw %struct.MvcCubeStruct, ptr %159, i32 0, i32 3
  %161 = load i32, ptr %8, align 4, !tbaa !10
  %162 = ashr i32 %161, 5
  %163 = sext i32 %162 to i64
  %164 = getelementptr inbounds [1 x i32], ptr %160, i64 0, i64 %163
  %165 = load i32, ptr %164, align 4, !tbaa !10
  %166 = or i32 %165, %158
  store i32 %166, ptr %164, align 4, !tbaa !10
  br label %180

167:                                              ; preds = %152, %149
  %168 = load i32, ptr %8, align 4, !tbaa !10
  %169 = and i32 %168, 31
  %170 = shl i32 1, %169
  %171 = xor i32 %170, -1
  %172 = load ptr, ptr %13, align 8, !tbaa !8
  %173 = getelementptr inbounds nuw %struct.MvcCubeStruct, ptr %172, i32 0, i32 3
  %174 = load i32, ptr %8, align 4, !tbaa !10
  %175 = ashr i32 %174, 5
  %176 = sext i32 %175 to i64
  %177 = getelementptr inbounds [1 x i32], ptr %173, i64 0, i64 %176
  %178 = load i32, ptr %177, align 4, !tbaa !10
  %179 = and i32 %178, %171
  store i32 %179, ptr %177, align 4, !tbaa !10
  br label %180

180:                                              ; preds = %167, %155
  %181 = load i32, ptr %9, align 4, !tbaa !10
  %182 = and i32 %181, 31
  %183 = shl i32 1, %182
  %184 = load ptr, ptr %13, align 8, !tbaa !8
  %185 = getelementptr inbounds nuw %struct.MvcCubeStruct, ptr %184, i32 0, i32 3
  %186 = load i32, ptr %9, align 4, !tbaa !10
  %187 = ashr i32 %186, 5
  %188 = sext i32 %187 to i64
  %189 = getelementptr inbounds [1 x i32], ptr %185, i64 0, i64 %188
  %190 = load i32, ptr %189, align 4, !tbaa !10
  %191 = or i32 %190, %183
  store i32 %191, ptr %189, align 4, !tbaa !10
  %192 = load i32, ptr %10, align 4, !tbaa !10
  %193 = and i32 %192, 31
  %194 = shl i32 1, %193
  %195 = load ptr, ptr %13, align 8, !tbaa !8
  %196 = getelementptr inbounds nuw %struct.MvcCubeStruct, ptr %195, i32 0, i32 3
  %197 = load i32, ptr %10, align 4, !tbaa !10
  %198 = ashr i32 %197, 5
  %199 = sext i32 %198 to i64
  %200 = getelementptr inbounds [1 x i32], ptr %196, i64 0, i64 %199
  %201 = load i32, ptr %200, align 4, !tbaa !10
  %202 = or i32 %201, %194
  store i32 %202, ptr %200, align 4, !tbaa !10
  br label %203

203:                                              ; preds = %180, %88
  %204 = load ptr, ptr %12, align 8, !tbaa !8
  %205 = getelementptr inbounds nuw %struct.MvcCubeStruct, ptr %204, i32 0, i32 0
  %206 = load ptr, ptr %205, align 8, !tbaa !21
  store ptr %206, ptr %12, align 8, !tbaa !8
  br label %25, !llvm.loop !64

207:                                              ; preds = %25
  %208 = load ptr, ptr %11, align 8, !tbaa !3
  call void @llvm.lifetime.end.p0(i64 4, ptr %17) #3
  call void @llvm.lifetime.end.p0(i64 4, ptr %16) #3
  call void @llvm.lifetime.end.p0(i64 4, ptr %15) #3
  call void @llvm.lifetime.end.p0(i64 4, ptr %14) #3
  call void @llvm.lifetime.end.p0(i64 8, ptr %13) #3
  call void @llvm.lifetime.end.p0(i64 8, ptr %12) #3
  call void @llvm.lifetime.end.p0(i64 8, ptr %11) #3
  ret ptr %208
}