; Function Attrs: nounwind uwtable
define ptr @Mvc_CoverUnivQuantify(ptr noundef %0, i32 noundef %1, i32 noundef %2, i32 noundef %3, i32 noundef %4) local_unnamed_addr #1 {
  %6 = tail call ptr @Mvc_CoverClone(ptr noundef %0) #6
  %7 = getelementptr inbounds nuw i8, ptr %0, i64 16
  %.060 = load ptr, ptr %7, align 8, !tbaa !7
  %.not61 = icmp eq ptr %.060, null
  br i1 %.not61, label %._crit_edge, label %.lr.ph

.lr.ph:                                           ; preds = %5
  %8 = ashr i32 %1, 5
  %9 = sext i32 %8 to i64
  %10 = and i32 %1, 31
  %11 = shl nuw i32 1, %10
  %12 = ashr i32 %2, 5
  %13 = sext i32 %12 to i64
  %14 = and i32 %2, 31
  %15 = shl nuw i32 1, %14
  %16 = ashr i32 %3, 5
  %17 = sext i32 %16 to i64
  %18 = and i32 %3, 31
  %19 = shl nuw i32 1, %18
  %20 = ashr i32 %4, 5
  %21 = sext i32 %20 to i64
  %22 = and i32 %4, 31
  %23 = shl nuw i32 1, %22
  %24 = getelementptr inbounds nuw i8, ptr %6, i64 16
  %25 = getelementptr inbounds nuw i8, ptr %6, i64 24
  %26 = getelementptr inbounds nuw i8, ptr %6, i64 32
  %27 = xor i32 %11, -1
  %28 = xor i32 %15, -1
  br label %29

29:                                               ; preds = %.lr.ph, %76
  %.062 = phi ptr [ %.060, %.lr.ph ], [ %.0, %76 ]
  %30 = getelementptr inbounds nuw i8, ptr %.062, i64 16
  %31 = getelementptr inbounds [1 x i32], ptr %30, i64 0, i64 %9
  %32 = load i32, ptr %31, align 4, !tbaa !3
  %33 = and i32 %32, %11
  %34 = icmp ne i32 %33, 0
  %35 = getelementptr inbounds [1 x i32], ptr %30, i64 0, i64 %13
  %36 = load i32, ptr %35, align 4, !tbaa !3
  %37 = and i32 %36, %15
  %38 = icmp ne i32 %37, 0
  %39 = getelementptr inbounds [1 x i32], ptr %30, i64 0, i64 %17
  %40 = load i32, ptr %39, align 4, !tbaa !3
  %41 = and i32 %40, %19
  %42 = icmp ne i32 %41, 0
  %43 = getelementptr inbounds [1 x i32], ptr %30, i64 0, i64 %21
  %44 = load i32, ptr %43, align 4, !tbaa !3
  %45 = and i32 %44, %23
  %46 = icmp ne i32 %45, 0
  %47 = xor i1 %34, %42
  %48 = xor i1 %38, %46
  %or.cond59 = select i1 %47, i1 %48, i1 false
  br i1 %or.cond59, label %76, label %49

49:                                               ; preds = %29
  %50 = tail call ptr @Mvc_CubeDup(ptr noundef %6, ptr noundef nonnull %.062) #6
  %51 = load ptr, ptr %24, align 8, !tbaa !28
  %52 = icmp eq ptr %51, null
  br i1 %52, label %53, label %54

53:                                               ; preds = %49
  store ptr %50, ptr %24, align 8, !tbaa !28
  br label %56

54:                                               ; preds = %49
  %55 = load ptr, ptr %25, align 8, !tbaa !29
  store ptr %50, ptr %55, align 8, !tbaa !30
  br label %56

56:                                               ; preds = %54, %53
  store ptr %50, ptr %25, align 8, !tbaa !29
  store ptr null, ptr %50, align 8, !tbaa !30
  %57 = load i32, ptr %26, align 8, !tbaa !32
  %58 = add nsw i32 %57, 1
  store i32 %58, ptr %26, align 8, !tbaa !32
  %or.cond = and i1 %34, %42
  %59 = getelementptr inbounds nuw i8, ptr %50, i64 16
  %60 = getelementptr inbounds [1 x i32], ptr %59, i64 0, i64 %9
  %61 = load i32, ptr %60, align 4, !tbaa !3
  %62 = and i32 %61, %27
  %63 = or i32 %61, %11
  %.sink = select i1 %or.cond, i32 %63, i32 %62
  store i32 %.sink, ptr %60, align 4, !tbaa !3
  %or.cond3 = select i1 %38, i1 %46, i1 false
  %64 = getelementptr inbounds nuw i8, ptr %50, i64 16
  %65 = getelementptr inbounds [1 x i32], ptr %64, i64 0, i64 %13
  %66 = load i32, ptr %65, align 4, !tbaa !3
  %67 = and i32 %66, %28
  %68 = or i32 %66, %15
  %.sink63 = select i1 %or.cond3, i32 %68, i32 %67
  store i32 %.sink63, ptr %65, align 4, !tbaa !3
  %69 = getelementptr inbounds nuw i8, ptr %50, i64 16
  %70 = getelementptr inbounds [1 x i32], ptr %69, i64 0, i64 %17
  %71 = load i32, ptr %70, align 4, !tbaa !3
  %72 = or i32 %71, %19
  store i32 %72, ptr %70, align 4, !tbaa !3
  %73 = getelementptr inbounds [1 x i32], ptr %69, i64 0, i64 %21
  %74 = load i32, ptr %73, align 4, !tbaa !3
  %75 = or i32 %74, %23
  store i32 %75, ptr %73, align 4, !tbaa !3
  br label %76

76:                                               ; preds = %29, %56
  %.0 = load ptr, ptr %.062, align 8, !tbaa !7
  %.not = icmp eq ptr %.0, null
  br i1 %.not, label %._crit_edge, label %29, !llvm.loop !52

._crit_edge:                                      ; preds = %76, %5
  ret ptr %6
}